target datalayout = "e-m:e-p270:32:32-p271:32:32-p272:64:64-i64:64-i128:128-f80:128-n8:16:32:64-S128"
target triple = "x86_64-pc-linux-gnu"

%struct.CkpntMemRec = type { double, double, [13 x ptr], i32, [13 x ptr], i32, i32, [13 x ptr], i32, [13 x ptr], i32, i64, double, i32, i32, i32, i32, double, double, double, double, double, double, [14 x double], [6 x double], [13 x double], double, ptr }

; Function Attrs: nounwind uwtable
define internal void @CVAckpntDelete(ptr noundef %0) #0 {
  %2 = alloca ptr, align 8
  %3 = alloca ptr, align 8
  %4 = alloca i32, align 4
  %5 = alloca i32, align 4
  store ptr %0, ptr %2, align 8, !tbaa !112
  call void @llvm.lifetime.start.p0(i64 8, ptr %3) #5
  call void @llvm.lifetime.start.p0(i64 4, ptr %4) #5
  %6 = load ptr, ptr %2, align 8, !tbaa !112
  %7 = load ptr, ptr %6, align 8, !tbaa !114
  %8 = icmp eq ptr %7, null
  br i1 %8, label %9, label %10

9:                                                ; preds = %1
  store i32 1, ptr %5, align 4
  br label %212

10:                                               ; preds = %1
  %11 = load ptr, ptr %2, align 8, !tbaa !112
  %12 = load ptr, ptr %11, align 8, !tbaa !114
  store ptr %12, ptr %3, align 8, !tbaa !114
  %13 = load ptr, ptr %2, align 8, !tbaa !112
  %14 = load ptr, ptr %13, align 8, !tbaa !114
  %15 = getelementptr inbounds nuw %struct.CkpntMemRec, ptr %14, i32 0, i32 27
  %16 = load ptr, ptr %15, align 8, !tbaa !115
  %17 = load ptr, ptr %2, align 8, !tbaa !112
  store ptr %16, ptr %17, align 8, !tbaa !114
  store i32 0, ptr %4, align 4, !tbaa !9
  br label %18

18:                                               ; preds = %31, %10
  %19 = load i32, ptr %4, align 4, !tbaa !9
  %20 = load ptr, ptr %3, align 8, !tbaa !114
  %21 = getelementptr inbounds nuw %struct.CkpntMemRec, ptr %20, i32 0, i32 13
  %22 = load i32, ptr %21, align 8, !tbaa !117
  %23 = icmp sle i32 %19, %22
  br i1 %23, label %24, label %34

24:                                               ; preds = %18
  %25 = load ptr, ptr %3, align 8, !tbaa !114
  %26 = getelementptr inbounds nuw %struct.CkpntMemRec, ptr %25, i32 0, i32 2
  %27 = load i32, ptr %4, align 4, !tbaa !9
  %28 = sext i32 %27 to i64
  %29 = getelementptr inbounds [13 x ptr], ptr %26, i64 0, i64 %28
  %30 = load ptr, ptr %29, align 8, !tbaa !72
  call void @N_VDestroy(ptr noundef %30)
  br label %31

31:                                               ; preds = %24
  %32 = load i32, ptr %4, align 4, !tbaa !9
  %33 = add nsw i32 %32, 1
  store i32 %33, ptr %4, align 4, !tbaa !9
  br label %18, !llvm.loop !118

34:                                               ; preds = %18
  %35 = load ptr, ptr %3, align 8, !tbaa !114
  %36 = getelementptr inbounds nuw %struct.CkpntMemRec, ptr %35, i32 0, i32 10
  %37 = load i32, ptr %36, align 8, !tbaa !119
  %38 = icmp ne i32 %37, 0
  br i1 %38, label %39, label %48

39:                                               ; preds = %34
  %40 = load ptr, ptr %3, align 8, !tbaa !114
  %41 = getelementptr inbounds nuw %struct.CkpntMemRec, ptr %40, i32 0, i32 2
  %42 = load ptr, ptr %3, align 8, !tbaa !114
  %43 = getelementptr inbounds nuw %struct.CkpntMemRec, ptr %42, i32 0, i32 10
  %44 = load i32, ptr %43, align 8, !tbaa !119
  %45 = sext i32 %44 to i64
  %46 = getelementptr inbounds [13 x ptr], ptr %41, i64 0, i64 %45
  %47 = load ptr, ptr %46, align 8, !tbaa !72
  call void @N_VDestroy(ptr noundef %47)
  br label %48

48:                                               ; preds = %39, %34
  %49 = load ptr, ptr %3, align 8, !tbaa !114
  %50 = getelementptr inbounds nuw %struct.CkpntMemRec, ptr %49, i32 0, i32 3
  %51 = load i32, ptr %50, align 8, !tbaa !120
  %52 = icmp ne i32 %51, 0
  br i1 %52, label %53, label %96

53:                                               ; preds = %48
  %54 = load ptr, ptr %3, align 8, !tbaa !114
  %55 = getelementptr inbounds nuw %struct.CkpntMemRec, ptr %54, i32 0, i32 27
  %56 = load ptr, ptr %55, align 8, !tbaa !115
  %57 = icmp ne ptr %56, null
  br i1 %57, label %58, label %90

58:                                               ; preds = %53
  store i32 0, ptr %4, align 4, !tbaa !9
  br label %59

59:                                               ; preds = %72, %58
  %60 = load i32, ptr %4, align 4, !tbaa !9
  %61 = load ptr, ptr %3, align 8, !tbaa !114
  %62 = getelementptr inbounds nuw %struct.CkpntMemRec, ptr %61, i32 0, i32 13
  %63 = load i32, ptr %62, align 8, !tbaa !117
  %64 = icmp sle i32 %60, %63
  br i1 %64, label %65, label %75

65:                                               ; preds = %59
  %66 = load ptr, ptr %3, align 8, !tbaa !114
  %67 = getelementptr inbounds nuw %struct.CkpntMemRec, ptr %66, i32 0, i32 4
  %68 = load i32, ptr %4, align 4, !tbaa !9
  %69 = sext i32 %68 to i64
  %70 = getelementptr inbounds [13 x ptr], ptr %67, i64 0, i64 %69
  %71 = load ptr, ptr %70, align 8, !tbaa !72
  call void @N_VDestroy(ptr noundef %71)
  br label %72

72:                                               ; preds = %65
  %73 = load i32, ptr %4, align 4, !tbaa !9
  %74 = add nsw i32 %73, 1
  store i32 %74, ptr %4, align 4, !tbaa !9
  br label %59, !llvm.loop !121

75:                                               ; preds = %59
  %76 = load ptr, ptr %3, align 8, !tbaa !114
  %77 = getelementptr inbounds nuw %struct.CkpntMemRec, ptr %76, i32 0, i32 10
  %78 = load i32, ptr %77, align 8, !tbaa !119
  %79 = icmp ne i32 %78, 0
  br i1 %79, label %80, label %89

80:                                               ; preds = %75
  %81 = load ptr, ptr %3, align 8, !tbaa !114
  %82 = getelementptr inbounds nuw %struct.CkpntMemRec, ptr %81, i32 0, i32 4
  %83 = load ptr, ptr %3, align 8, !tbaa !114
  %84 = getelementptr inbounds nuw %struct.CkpntMemRec, ptr %83, i32 0, i32 10
  %85 = load i32, ptr %84, align 8, !tbaa !119
  %86 = sext i32 %85 to i64
  %87 = getelementptr inbounds [13 x ptr], ptr %82, i64 0, i64 %86
  %88 = load ptr, ptr %87, align 8, !tbaa !72
  call void @N_VDestroy(ptr noundef %88)
  br label %89

89:                                               ; preds = %80, %75
  br label %95

90:                                               ; preds = %53
  %91 = load ptr, ptr %3, align 8, !tbaa !114
  %92 = getelementptr inbounds nuw %struct.CkpntMemRec, ptr %91, i32 0, i32 4
  %93 = getelementptr inbounds [13 x ptr], ptr %92, i64 0, i64 0
  %94 = load ptr, ptr %93, align 8, !tbaa !72
  call void @N_VDestroy(ptr noundef %94)
  br label %95

95:                                               ; preds = %90, %89
  br label %96

96:                                               ; preds = %95, %48
  %97 = load ptr, ptr %3, align 8, !tbaa !114
  %98 = getelementptr inbounds nuw %struct.CkpntMemRec, ptr %97, i32 0, i32 5
  %99 = load i32, ptr %98, align 8, !tbaa !122
  %100 = icmp ne i32 %99, 0
  br i1 %100, label %101, label %153

101:                                              ; preds = %96
  %102 = load ptr, ptr %3, align 8, !tbaa !114
  %103 = getelementptr inbounds nuw %struct.CkpntMemRec, ptr %102, i32 0, i32 27
  %104 = load ptr, ptr %103, align 8, !tbaa !115
  %105 = icmp ne ptr %104, null
  br i1 %105, label %106, label %144

106:                                              ; preds = %101
  store i32 0, ptr %4, align 4, !tbaa !9
  br label %107

107:                                              ; preds = %123, %106
  %108 = load i32, ptr %4, align 4, !tbaa !9
  %109 = load ptr, ptr %3, align 8, !tbaa !114
  %110 = getelementptr inbounds nuw %struct.CkpntMemRec, ptr %109, i32 0, i32 13
  %111 = load i32, ptr %110, align 8, !tbaa !117
  %112 = icmp sle i32 %108, %111
  br i1 %112, label %113, label %126

113:                                              ; preds = %107
  %114 = load ptr, ptr %3, align 8, !tbaa !114
  %115 = getelementptr inbounds nuw %struct.CkpntMemRec, ptr %114, i32 0, i32 7
  %116 = load i32, ptr %4, align 4, !tbaa !9
  %117 = sext i32 %116 to i64
  %118 = getelementptr inbounds [13 x ptr], ptr %115, i64 0, i64 %117
  %119 = load ptr, ptr %118, align 8, !tbaa !73
  %120 = load ptr, ptr %3, align 8, !tbaa !114
  %121 = getelementptr inbounds nuw %struct.CkpntMemRec, ptr %120, i32 0, i32 6
  %122 = load i32, ptr %121, align 4, !tbaa !123
  call void @N_VDestroyVectorArray(ptr noundef %119, i32 noundef %122)
  br label %123

123:                                              ; preds = %113
  %124 = load i32, ptr %4, align 4, !tbaa !9
  %125 = add nsw i32 %124, 1
  store i32 %125, ptr %4, align 4, !tbaa !9
  br label %107, !llvm.loop !124

126:                                              ; preds = %107
  %127 = load ptr, ptr %3, align 8, !tbaa !114
  %128 = getelementptr inbounds nuw %struct.CkpntMemRec, ptr %127, i32 0, i32 10
  %129 = load i32, ptr %128, align 8, !tbaa !119
  %130 = icmp ne i32 %129, 0
  br i1 %130, label %131, label %143

131:                                              ; preds = %126
  %132 = load ptr, ptr %3, align 8, !tbaa !114
  %133 = getelementptr inbounds nuw %struct.CkpntMemRec, ptr %132, i32 0, i32 7
  %134 = load ptr, ptr %3, align 8, !tbaa !114
  %135 = getelementptr inbounds nuw %struct.CkpntMemRec, ptr %134, i32 0, i32 10
  %136 = load i32, ptr %135, align 8, !tbaa !119
  %137 = sext i32 %136 to i64
  %138 = getelementptr inbounds [13 x ptr], ptr %133, i64 0, i64 %137
  %139 = load ptr, ptr %138, align 8, !tbaa !73
  %140 = load ptr, ptr %3, align 8, !tbaa !114
  %141 = getelementptr inbounds nuw %struct.CkpntMemRec, ptr %140, i32 0, i32 6
  %142 = load i32, ptr %141, align 4, !tbaa !123
  call void @N_VDestroyVectorArray(ptr noundef %139, i32 noundef %142)
  br label %143

143:                                              ; preds = %131, %126
  br label %152

144:                                              ; preds = %101
  %145 = load ptr, ptr %3, align 8, !tbaa !114
  %146 = getelementptr inbounds nuw %struct.CkpntMemRec, ptr %145, i32 0, i32 7
  %147 = getelementptr inbounds [13 x ptr], ptr %146, i64 0, i64 0
  %148 = load ptr, ptr %147, align 8, !tbaa !73
  %149 = load ptr, ptr %3, align 8, !tbaa !114
  %150 = getelementptr inbounds nuw %struct.CkpntMemRec, ptr %149, i32 0, i32 6
  %151 = load i32, ptr %150, align 4, !tbaa !123
  call void @N_VDestroyVectorArray(ptr noundef %148, i32 noundef %151)
  br label %152

152:                                              ; preds = %144, %143
  br label %153

153:                                              ; preds = %152, %96
  %154 = load ptr, ptr %3, align 8, !tbaa !114
  %155 = getelementptr inbounds nuw %struct.CkpntMemRec, ptr %154, i32 0, i32 8
  %156 = load i32, ptr %155, align 8, !tbaa !125
  %157 = icmp ne i32 %156, 0
  br i1 %157, label %158, label %210

158:                                              ; preds = %153
  %159 = load ptr, ptr %3, align 8, !tbaa !114
  %160 = getelementptr inbounds nuw %struct.CkpntMemRec, ptr %159, i32 0, i32 27
  %161 = load ptr, ptr %160, align 8, !tbaa !115
  %162 = icmp ne ptr %161, null
  br i1 %162, label %163, label %201

163:                                              ; preds = %158
  store i32 0, ptr %4, align 4, !tbaa !9
  br label %164

164:                                              ; preds = %180, %163
  %165 = load i32, ptr %4, align 4, !tbaa !9
  %166 = load ptr, ptr %3, align 8, !tbaa !114
  %167 = getelementptr inbounds nuw %struct.CkpntMemRec, ptr %166, i32 0, i32 13
  %168 = load i32, ptr %167, align 8, !tbaa !117
  %169 = icmp sle i32 %165, %168
  br i1 %169, label %170, label %183

170:                                              ; preds = %164
  %171 = load ptr, ptr %3, align 8, !tbaa !114
  %172 = getelementptr inbounds nuw %struct.CkpntMemRec, ptr %171, i32 0, i32 9
  %173 = load i32, ptr %4, align 4, !tbaa !9
  %174 = sext i32 %173 to i64
  %175 = getelementptr inbounds [13 x ptr], ptr %172, i64 0, i64 %174
  %176 = load ptr, ptr %175, align 8, !tbaa !73
  %177 = load ptr, ptr %3, align 8, !tbaa !114
  %178 = getelementptr inbounds nuw %struct.CkpntMemRec, ptr %177, i32 0, i32 6
  %179 = load i32, ptr %178, align 4, !tbaa !123
  call void @N_VDestroyVectorArray(ptr noundef %176, i32 noundef %179)
  br label %180

180:                                              ; preds = %170
  %181 = load i32, ptr %4, align 4, !tbaa !9
  %182 = add nsw i32 %181, 1
  store i32 %182, ptr %4, align 4, !tbaa !9
  br label %164, !llvm.loop !126

183:                                              ; preds = %164
  %184 = load ptr, ptr %3, align 8, !tbaa !114
  %185 = getelementptr inbounds nuw %struct.CkpntMemRec, ptr %184, i32 0, i32 10
  %186 = load i32, ptr %185, align 8, !tbaa !119
  %187 = icmp ne i32 %186, 0
  br i1 %187, label %188, label %200

188:                                              ; preds = %183
  %189 = load ptr, ptr %3, align 8, !tbaa !114
  %190 = getelementptr inbounds nuw %struct.CkpntMemRec, ptr %189, i32 0, i32 9
  %191 = load ptr, ptr %3, align 8, !tbaa !114
  %192 = getelementptr inbounds nuw %struct.CkpntMemRec, ptr %191, i32 0, i32 10
  %193 = load i32, ptr %192, align 8, !tbaa !119
  %194 = sext i32 %193 to i64
  %195 = getelementptr inbounds [13 x ptr], ptr %190, i64 0, i64 %194
  %196 = load ptr, ptr %195, align 8, !tbaa !73
  %197 = load ptr, ptr %3, align 8, !tbaa !114
  %198 = getelementptr inbounds nuw %struct.CkpntMemRec, ptr %197, i32 0, i32 6
  %199 = load i32, ptr %198, align 4, !tbaa !123
  call void @N_VDestroyVectorArray(ptr noundef %196, i32 noundef %199)
  br label %200

200:                                              ; preds = %188, %183
  br label %209

201:                                              ; preds = %158
  %202 = load ptr, ptr %3, align 8, !tbaa !114
  %203 = getelementptr inbounds nuw %struct.CkpntMemRec, ptr %202, i32 0, i32 9
  %204 = getelementptr inbounds [13 x ptr], ptr %203, i64 0, i64 0
  %205 = load ptr, ptr %204, align 8, !tbaa !73
  %206 = load ptr, ptr %3, align 8, !tbaa !114
  %207 = getelementptr inbounds nuw %struct.CkpntMemRec, ptr %206, i32 0, i32 6
  %208 = load i32, ptr %207, align 4, !tbaa !123
  call void @N_VDestroyVectorArray(ptr noundef %205, i32 noundef %208)
  br label %209

209:                                              ; preds = %201, %200
  br label %210

210:                                              ; preds = %209, %153
  %211 = load ptr, ptr %3, align 8, !tbaa !114
  call void @free(ptr noundef %211) #5
  store ptr null, ptr %3, align 8, !tbaa !114
  store i32 0, ptr %5, align 4
  br label %212

212:                                              ; preds = %210, %9
  call void @llvm.lifetime.end.p0(i64 4, ptr %4) #5
  call void @llvm.lifetime.end.p0(i64 8, ptr %3) #5
  %213 = load i32, ptr %5, align 4
  switch i32 %213, label %215 [
    i32 0, label %214
    i32 1, label %214
  ]

214:                                              ; preds = %212, %212
  ret void

215:                                              ; preds = %212
  unreachable
}